target datalayout = "e-m:e-p270:32:32-p271:32:32-p272:64:64-i64:64-i128:128-f80:128-n8:16:32:64-S128"
target triple = "x86_64-pc-linux-gnu"

@cX509Name = internal global i64 0, align 8
@eX509NameError = internal global i64 0, align 8
@.str.1 = private unnamed_addr constant [3 x i8] c"[]\00", align 1
@id_aref = internal global i64 0, align 8
@mX509 = external global i64, align 8
@.str.2 = private unnamed_addr constant [10 x i8] c"NameError\00", align 1
@eOSSLError = external global i64, align 8
@.str.3 = private unnamed_addr constant [5 x i8] c"Name\00", align 1
@rb_cObject = external global i64, align 8
@rb_mComparable = external global i64, align 8
@.str.4 = private unnamed_addr constant [11 x i8] c"initialize\00", align 1
@.str.5 = private unnamed_addr constant [16 x i8] c"initialize_copy\00", align 1
@.str.6 = private unnamed_addr constant [10 x i8] c"add_entry\00", align 1
@.str.7 = private unnamed_addr constant [5 x i8] c"to_s\00", align 1
@.str.8 = private unnamed_addr constant [8 x i8] c"to_utf8\00", align 1
@.str.9 = private unnamed_addr constant [8 x i8] c"inspect\00", align 1
@.str.10 = private unnamed_addr constant [5 x i8] c"to_a\00", align 1
@.str.11 = private unnamed_addr constant [4 x i8] c"cmp\00", align 1
@.str.12 = private unnamed_addr constant [4 x i8] c"<=>\00", align 1
@.str.13 = private unnamed_addr constant [5 x i8] c"eql?\00", align 1
@.str.14 = private unnamed_addr constant [5 x i8] c"hash\00", align 1
@.str.15 = private unnamed_addr constant [9 x i8] c"hash_old\00", align 1
@.str.16 = private unnamed_addr constant [7 x i8] c"to_der\00", align 1
@.str.17 = private unnamed_addr constant [20 x i8] c"DEFAULT_OBJECT_TYPE\00", align 1
@.str.18 = private unnamed_addr constant [2 x i8] c"C\00", align 1
@.str.19 = private unnamed_addr constant [12 x i8] c"countryName\00", align 1
@.str.20 = private unnamed_addr constant [13 x i8] c"serialNumber\00", align 1
@.str.21 = private unnamed_addr constant [12 x i8] c"dnQualifier\00", align 1
@.str.22 = private unnamed_addr constant [3 x i8] c"DC\00", align 1
@.str.23 = private unnamed_addr constant [16 x i8] c"domainComponent\00", align 1
@.str.24 = private unnamed_addr constant [13 x i8] c"emailAddress\00", align 1
@.str.25 = private unnamed_addr constant [21 x i8] c"OBJECT_TYPE_TEMPLATE\00", align 1
@.str.26 = private unnamed_addr constant [7 x i8] c"COMPAT\00", align 1
@.str.27 = private unnamed_addr constant [8 x i8] c"RFC2253\00", align 1
@.str.28 = private unnamed_addr constant [8 x i8] c"ONELINE\00", align 1
@.str.29 = private unnamed_addr constant [10 x i8] c"MULTILINE\00", align 1

; Function Attrs: inlinehint nounwind sspstrong uwtable
define internal i64 @rbimpl_strlen(ptr noundef nonnull %0) #4 {
  %2 = alloca ptr, align 8
  store ptr %0, ptr %2, align 8, !tbaa !21
  %3 = load ptr, ptr %2, align 8, !tbaa !21
  %4 = call i64 @strlen(ptr noundef %3) #22
  ret i64 %4
}

; Function Attrs: inlinehint nounwind sspstrong willreturn memory(none) uwtable
define internal i64 @RB_INT2FIX(i64 noundef %0) #6 {
  %2 = alloca i64, align 8
  %3 = alloca i64, align 8
  %4 = alloca i64, align 8
  %5 = alloca i64, align 8
  %6 = alloca i64, align 8
  %7 = alloca i64, align 8
  store i64 %0, ptr %2, align 8, !tbaa !11
  call void @llvm.lifetime.start.p0(i64 8, ptr %3) #18
  %8 = load i64, ptr %2, align 8, !tbaa !11
  store i64 %8, ptr %3, align 8, !tbaa !11
  call void @llvm.lifetime.start.p0(i64 8, ptr %4) #18
  %9 = load i64, ptr %3, align 8, !tbaa !11
  %10 = shl i64 %9, 1
  %11 = add i64 %10, 1
  store i64 %11, ptr %4, align 8, !tbaa !11
  call void @llvm.lifetime.start.p0(i64 8, ptr %5) #18
  %12 = load i64, ptr %4, align 8, !tbaa !11
  store i64 %12, ptr %5, align 8, !tbaa !11
  call void @llvm.lifetime.start.p0(i64 8, ptr %6) #18
  %13 = load i64, ptr %5, align 8, !tbaa !11
  store i64 %13, ptr %6, align 8, !tbaa !11
  call void @llvm.lifetime.start.p0(i64 8, ptr %7) #18
  %14 = load i64, ptr %6, align 8, !tbaa !11
  store i64 %14, ptr %7, align 8, !tbaa !11
  %15 = load i64, ptr %7, align 8, !tbaa !11
  call void @llvm.lifetime.end.p0(i64 8, ptr %7) #18
  call void @llvm.lifetime.end.p0(i64 8, ptr %6) #18
  call void @llvm.lifetime.end.p0(i64 8, ptr %5) #18
  call void @llvm.lifetime.end.p0(i64 8, ptr %4) #18
  call void @llvm.lifetime.end.p0(i64 8, ptr %3) #18
  ret i64 %15
}

; Function Attrs: inlinehint nounwind sspstrong uwtable
define internal i64 @rb_ulong2num_inline(i64 noundef %0) #4 {
  %2 = alloca i64, align 8
  %3 = alloca i64, align 8
  store i64 %0, ptr %3, align 8, !tbaa !11
  %4 = load i64, ptr %3, align 8, !tbaa !11
  %5 = icmp ult i64 %4, 4611686018427387904
  br i1 %5, label %6, label %9

6:                                                ; preds = %1
  %7 = load i64, ptr %3, align 8, !tbaa !11
  %8 = call i64 @RB_INT2FIX(i64 noundef %7) #20
  store i64 %8, ptr %2, align 8
  br label %12

9:                                                ; preds = %1
  %10 = load i64, ptr %3, align 8, !tbaa !11
  %11 = call i64 @rb_uint2big(i64 noundef %10)
  store i64 %11, ptr %2, align 8
  br label %12

12:                                               ; preds = %9, %6
  %13 = load i64, ptr %2, align 8
  ret i64 %13
}

; Function Attrs: inlinehint nounwind sspstrong uwtable
define internal i64 @rbimpl_str_new_cstr(ptr noundef nonnull %0) #4 {
  %2 = alloca ptr, align 8
  %3 = alloca i64, align 8
  store ptr %0, ptr %2, align 8, !tbaa !21
  call void @llvm.lifetime.start.p0(i64 8, ptr %3) #18
  %4 = load ptr, ptr %2, align 8, !tbaa !21
  %5 = call i64 @rbimpl_strlen(ptr noundef %4)
  store i64 %5, ptr %3, align 8, !tbaa !11
  %6 = load ptr, ptr %2, align 8, !tbaa !21
  %7 = load i64, ptr %3, align 8, !tbaa !11
  %8 = call i64 @rb_str_new_static(ptr noundef %6, i64 noundef %7)
  call void @llvm.lifetime.end.p0(i64 8, ptr %3) #18
  ret i64 %8
}

; Function Attrs: inlinehint nounwind sspstrong uwtable
define internal i64 @rb_int2num_inline(i32 noundef %0) #4 {
  %2 = alloca i64, align 8
  %3 = alloca i32, align 4
  store i32 %0, ptr %3, align 4, !tbaa !17
  %4 = load i32, ptr %3, align 4, !tbaa !17
  %5 = sext i32 %4 to i64
  %6 = icmp slt i64 %5, 4611686018427387904
  br i1 %6, label %7, label %15

7:                                                ; preds = %1
  %8 = load i32, ptr %3, align 4, !tbaa !17
  %9 = sext i32 %8 to i64
  %10 = icmp sge i64 %9, -4611686018427387904
  br i1 %10, label %11, label %15

11:                                               ; preds = %7
  %12 = load i32, ptr %3, align 4, !tbaa !17
  %13 = sext i32 %12 to i64
  %14 = call i64 @RB_INT2FIX(i64 noundef %13) #20
  store i64 %14, ptr %2, align 8
  br label %19

15:                                               ; preds = %7, %1
  %16 = load i32, ptr %3, align 4, !tbaa !17
  %17 = sext i32 %16 to i64
  %18 = call i64 @rb_int2big(i64 noundef %17)
  store i64 %18, ptr %2, align 8
  br label %19

19:                                               ; preds = %15, %11
  %20 = load i64, ptr %2, align 8
  ret i64 %20
}

; Function Attrs: nounwind sspstrong uwtable
define void @Init_ossl_x509name() #0 {
  %1 = alloca i64, align 8
  %2 = alloca i64, align 8
  %3 = alloca i64, align 8
  %4 = alloca i64, align 8
  call void @llvm.lifetime.start.p0(i64 8, ptr %1) #18
  call void @llvm.lifetime.start.p0(i64 8, ptr %2) #18
  call void @llvm.lifetime.start.p0(i64 8, ptr %3) #18
  call void @llvm.lifetime.start.p0(i64 8, ptr %4) #18
  %5 = call i64 @rb_intern(ptr noundef @.str.1)
  store i64 %5, ptr @id_aref, align 8, !tbaa !11
  %6 = load i64, ptr @mX509, align 8, !tbaa !11
  %7 = load i64, ptr @eOSSLError, align 8, !tbaa !11
  %8 = call i64 @rb_define_class_under(i64 noundef %6, ptr noundef @.str.2, i64 noundef %7)
  store i64 %8, ptr @eX509NameError, align 8, !tbaa !11
  %9 = load i64, ptr @mX509, align 8, !tbaa !11
  %10 = load i64, ptr @rb_cObject, align 8, !tbaa !11
  %11 = call i64 @rb_define_class_under(i64 noundef %9, ptr noundef @.str.3, i64 noundef %10)
  store i64 %11, ptr @cX509Name, align 8, !tbaa !11
  %12 = load i64, ptr @cX509Name, align 8, !tbaa !11
  %13 = load i64, ptr @rb_mComparable, align 8, !tbaa !11
  call void @rb_include_module(i64 noundef %12, i64 noundef %13)
  %14 = load i64, ptr @cX509Name, align 8, !tbaa !11
  call void @rb_define_alloc_func(i64 noundef %14, ptr noundef @ossl_x509name_alloc)
  %15 = load i64, ptr @cX509Name, align 8, !tbaa !11
  call void @rb_define_method(i64 noundef %15, ptr noundef @.str.4, ptr noundef @ossl_x509name_initialize, i32 noundef -1)
  %16 = load i64, ptr @cX509Name, align 8, !tbaa !11
  call void @rb_define_method(i64 noundef %16, ptr noundef @.str.5, ptr noundef @ossl_x509name_initialize_copy, i32 noundef 1)
  %17 = load i64, ptr @cX509Name, align 8, !tbaa !11
  call void @rb_define_method(i64 noundef %17, ptr noundef @.str.6, ptr noundef @ossl_x509name_add_entry, i32 noundef -1)
  %18 = load i64, ptr @cX509Name, align 8, !tbaa !11
  call void @rb_define_method(i64 noundef %18, ptr noundef @.str.7, ptr noundef @ossl_x509name_to_s, i32 noundef -1)
  %19 = load i64, ptr @cX509Name, align 8, !tbaa !11
  call void @rb_define_method(i64 noundef %19, ptr noundef @.str.8, ptr noundef @ossl_x509name_to_utf8, i32 noundef 0)
  %20 = load i64, ptr @cX509Name, align 8, !tbaa !11
  call void @rb_define_method(i64 noundef %20, ptr noundef @.str.9, ptr noundef @ossl_x509name_inspect, i32 noundef 0)
  %21 = load i64, ptr @cX509Name, align 8, !tbaa !11
  call void @rb_define_method(i64 noundef %21, ptr noundef @.str.10, ptr noundef @ossl_x509name_to_a, i32 noundef 0)
  %22 = load i64, ptr @cX509Name, align 8, !tbaa !11
  call void @rb_define_method(i64 noundef %22, ptr noundef @.str.11, ptr noundef @ossl_x509name_cmp, i32 noundef 1)
  %23 = load i64, ptr @cX509Name, align 8, !tbaa !11
  call void @rb_define_alias(i64 noundef %23, ptr noundef @.str.12, ptr noundef @.str.11)
  %24 = load i64, ptr @cX509Name, align 8, !tbaa !11
  call void @rb_define_method(i64 noundef %24, ptr noundef @.str.13, ptr noundef @ossl_x509name_eql, i32 noundef 1)
  %25 = load i64, ptr @cX509Name, align 8, !tbaa !11
  call void @rb_define_method(i64 noundef %25, ptr noundef @.str.14, ptr noundef @ossl_x509name_hash, i32 noundef 0)
  %26 = load i64, ptr @cX509Name, align 8, !tbaa !11
  call void @rb_define_method(i64 noundef %26, ptr noundef @.str.15, ptr noundef @ossl_x509name_hash_old, i32 noundef 0)
  %27 = load i64, ptr @cX509Name, align 8, !tbaa !11
  call void @rb_define_method(i64 noundef %27, ptr noundef @.str.16, ptr noundef @ossl_x509name_to_der, i32 noundef 0)
  %28 = call i64 @rb_int2num_inline(i32 noundef 12)
  store i64 %28, ptr %1, align 8, !tbaa !11
  %29 = call i64 @rb_int2num_inline(i32 noundef 19)
  store i64 %29, ptr %2, align 8, !tbaa !11
  %30 = call i64 @rb_int2num_inline(i32 noundef 22)
  store i64 %30, ptr %3, align 8, !tbaa !11
  %31 = load i64, ptr @cX509Name, align 8, !tbaa !11
  %32 = load i64, ptr %1, align 8, !tbaa !11
  call void @rb_define_const(i64 noundef %31, ptr noundef @.str.17, i64 noundef %32)
  %33 = call i64 @rb_hash_new()
  store i64 %33, ptr %4, align 8, !tbaa !11
  %34 = load i64, ptr %4, align 8, !tbaa !11
  %35 = load i64, ptr %1, align 8, !tbaa !11
  %36 = call i64 @rb_hash_set_ifnone(i64 noundef %34, i64 noundef %35)
  %37 = load i64, ptr %4, align 8, !tbaa !11
  %38 = call i64 @rbimpl_str_new_cstr(ptr noundef @.str.18)
  %39 = load i64, ptr %2, align 8, !tbaa !11
  %40 = call i64 @rb_hash_aset(i64 noundef %37, i64 noundef %38, i64 noundef %39)
  %41 = load i64, ptr %4, align 8, !tbaa !11
  %42 = call i64 @rbimpl_str_new_cstr(ptr noundef @.str.19)
  %43 = load i64, ptr %2, align 8, !tbaa !11
  %44 = call i64 @rb_hash_aset(i64 noundef %41, i64 noundef %42, i64 noundef %43)
  %45 = load i64, ptr %4, align 8, !tbaa !11
  %46 = call i64 @rbimpl_str_new_cstr(ptr noundef @.str.20)
  %47 = load i64, ptr %2, align 8, !tbaa !11
  %48 = call i64 @rb_hash_aset(i64 noundef %45, i64 noundef %46, i64 noundef %47)
  %49 = load i64, ptr %4, align 8, !tbaa !11
  %50 = call i64 @rbimpl_str_new_cstr(ptr noundef @.str.21)
  %51 = load i64, ptr %2, align 8, !tbaa !11
  %52 = call i64 @rb_hash_aset(i64 noundef %49, i64 noundef %50, i64 noundef %51)
  %53 = load i64, ptr %4, align 8, !tbaa !11
  %54 = call i64 @rbimpl_str_new_cstr(ptr noundef @.str.22)
  %55 = load i64, ptr %3, align 8, !tbaa !11
  %56 = call i64 @rb_hash_aset(i64 noundef %53, i64 noundef %54, i64 noundef %55)
  %57 = load i64, ptr %4, align 8, !tbaa !11
  %58 = call i64 @rbimpl_str_new_cstr(ptr noundef @.str.23)
  %59 = load i64, ptr %3, align 8, !tbaa !11
  %60 = call i64 @rb_hash_aset(i64 noundef %57, i64 noundef %58, i64 noundef %59)
  %61 = load i64, ptr %4, align 8, !tbaa !11
  %62 = call i64 @rbimpl_str_new_cstr(ptr noundef @.str.24)
  %63 = load i64, ptr %3, align 8, !tbaa !11
  %64 = call i64 @rb_hash_aset(i64 noundef %61, i64 noundef %62, i64 noundef %63)
  %65 = load i64, ptr @cX509Name, align 8, !tbaa !11
  %66 = load i64, ptr %4, align 8, !tbaa !11
  call void @rb_define_const(i64 noundef %65, ptr noundef @.str.25, i64 noundef %66)
  %67 = load i64, ptr @cX509Name, align 8, !tbaa !11
  %68 = call i64 @rb_ulong2num_inline(i64 noundef 0)
  call void @rb_define_const(i64 noundef %67, ptr noundef @.str.26, i64 noundef %68)
  %69 = load i64, ptr @cX509Name, align 8, !tbaa !11
  %70 = call i64 @rb_ulong2num_inline(i64 noundef 17892119)
  call void @rb_define_const(i64 noundef %69, ptr noundef @.str.27, i64 noundef %70)
  %71 = load i64, ptr @cX509Name, align 8, !tbaa !11
  %72 = call i64 @rb_ulong2num_inline(i64 noundef 8520479)
  call void @rb_define_const(i64 noundef %71, ptr noundef @.str.28, i64 noundef %72)
  %73 = load i64, ptr @cX509Name, align 8, !tbaa !11
  %74 = call i64 @rb_ulong2num_inline(i64 noundef 44302342)
  call void @rb_define_const(i64 noundef %73, ptr noundef @.str.29, i64 noundef %74)
  call void @llvm.lifetime.end.p0(i64 8, ptr %4) #18
  call void @llvm.lifetime.end.p0(i64 8, ptr %3) #18
  call void @llvm.lifetime.end.p0(i64 8, ptr %2) #18
  call void @llvm.lifetime.end.p0(i64 8, ptr %1) #18
  ret void
}