; Function Attrs: nounwind sspstrong uwtable
define void @Init_ossl_x509name() local_unnamed_addr #0 {
  %1 = tail call i64 @rb_intern(ptr noundef nonnull @.str.1) #8
  store i64 %1, ptr @id_aref, align 8, !tbaa !6
  %2 = load i64, ptr @mX509, align 8, !tbaa !6
  %3 = load i64, ptr @eOSSLError, align 8, !tbaa !6
  %4 = tail call i64 @rb_define_class_under(i64 noundef %2, ptr noundef nonnull @.str.2, i64 noundef %3) #8
  store i64 %4, ptr @eX509NameError, align 8, !tbaa !6
  %5 = load i64, ptr @mX509, align 8, !tbaa !6
  %6 = load i64, ptr @rb_cObject, align 8, !tbaa !6
  %7 = tail call i64 @rb_define_class_under(i64 noundef %5, ptr noundef nonnull @.str.3, i64 noundef %6) #8
  store i64 %7, ptr @cX509Name, align 8, !tbaa !6
  %8 = load i64, ptr @rb_mComparable, align 8, !tbaa !6
  tail call void @rb_include_module(i64 noundef %7, i64 noundef %8) #8
  %9 = load i64, ptr @cX509Name, align 8, !tbaa !6
  tail call void @rb_define_alloc_func(i64 noundef %9, ptr noundef nonnull @ossl_x509name_alloc) #8
  %10 = load i64, ptr @cX509Name, align 8, !tbaa !6
  tail call void @rb_define_method(i64 noundef %10, ptr noundef nonnull @.str.4, ptr noundef nonnull @ossl_x509name_initialize, i32 noundef -1) #8
  %11 = load i64, ptr @cX509Name, align 8, !tbaa !6
  tail call void @rb_define_method(i64 noundef %11, ptr noundef nonnull @.str.5, ptr noundef nonnull @ossl_x509name_initialize_copy, i32 noundef 1) #8
  %12 = load i64, ptr @cX509Name, align 8, !tbaa !6
  tail call void @rb_define_method(i64 noundef %12, ptr noundef nonnull @.str.6, ptr noundef nonnull @ossl_x509name_add_entry, i32 noundef -1) #8
  %13 = load i64, ptr @cX509Name, align 8, !tbaa !6
  tail call void @rb_define_method(i64 noundef %13, ptr noundef nonnull @.str.7, ptr noundef nonnull @ossl_x509name_to_s, i32 noundef -1) #8
  %14 = load i64, ptr @cX509Name, align 8, !tbaa !6
  tail call void @rb_define_method(i64 noundef %14, ptr noundef nonnull @.str.8, ptr noundef nonnull @ossl_x509name_to_utf8, i32 noundef 0) #8
  %15 = load i64, ptr @cX509Name, align 8, !tbaa !6
  tail call void @rb_define_method(i64 noundef %15, ptr noundef nonnull @.str.9, ptr noundef nonnull @ossl_x509name_inspect, i32 noundef 0) #8
  %16 = load i64, ptr @cX509Name, align 8, !tbaa !6
  tail call void @rb_define_method(i64 noundef %16, ptr noundef nonnull @.str.10, ptr noundef nonnull @ossl_x509name_to_a, i32 noundef 0) #8
  %17 = load i64, ptr @cX509Name, align 8, !tbaa !6
  tail call void @rb_define_method(i64 noundef %17, ptr noundef nonnull @.str.11, ptr noundef nonnull @ossl_x509name_cmp, i32 noundef 1) #8
  %18 = load i64, ptr @cX509Name, align 8, !tbaa !6
  tail call void @rb_define_alias(i64 noundef %18, ptr noundef nonnull @.str.12, ptr noundef nonnull @.str.11) #8
  %19 = load i64, ptr @cX509Name, align 8, !tbaa !6
  tail call void @rb_define_method(i64 noundef %19, ptr noundef nonnull @.str.13, ptr noundef nonnull @ossl_x509name_eql, i32 noundef 1) #8
  %20 = load i64, ptr @cX509Name, align 8, !tbaa !6
  tail call void @rb_define_method(i64 noundef %20, ptr noundef nonnull @.str.14, ptr noundef nonnull @ossl_x509name_hash, i32 noundef 0) #8
  %21 = load i64, ptr @cX509Name, align 8, !tbaa !6
  tail call void @rb_define_method(i64 noundef %21, ptr noundef nonnull @.str.15, ptr noundef nonnull @ossl_x509name_hash_old, i32 noundef 0) #8
  %22 = load i64, ptr @cX509Name, align 8, !tbaa !6
  tail call void @rb_define_method(i64 noundef %22, ptr noundef nonnull @.str.16, ptr noundef nonnull @ossl_x509name_to_der, i32 noundef 0) #8
  %23 = load i64, ptr @cX509Name, align 8, !tbaa !6
  tail call void @rb_define_const(i64 noundef %23, ptr noundef nonnull @.str.17, i64 noundef 25) #8
  %24 = tail call i64 @rb_hash_new() #8
  %25 = tail call i64 @rb_hash_set_ifnone(i64 noundef %24, i64 noundef 25) #8
  %26 = tail call i64 @rb_str_new_static(ptr noundef nonnull @.str.18, i64 noundef 1) #8
  %27 = tail call i64 @rb_hash_aset(i64 noundef %24, i64 noundef %26, i64 noundef 39) #8
  %28 = tail call i64 @rb_str_new_static(ptr noundef nonnull @.str.19, i64 noundef 11) #8
  %29 = tail call i64 @rb_hash_aset(i64 noundef %24, i64 noundef %28, i64 noundef 39) #8
  %30 = tail call i64 @rb_str_new_static(ptr noundef nonnull @.str.20, i64 noundef 12) #8
  %31 = tail call i64 @rb_hash_aset(i64 noundef %24, i64 noundef %30, i64 noundef 39) #8
  %32 = tail call i64 @rb_str_new_static(ptr noundef nonnull @.str.21, i64 noundef 11) #8
  %33 = tail call i64 @rb_hash_aset(i64 noundef %24, i64 noundef %32, i64 noundef 39) #8
  %34 = tail call i64 @rb_str_new_static(ptr noundef nonnull @.str.22, i64 noundef 2) #8
  %35 = tail call i64 @rb_hash_aset(i64 noundef %24, i64 noundef %34, i64 noundef 45) #8
  %36 = tail call i64 @rb_str_new_static(ptr noundef nonnull @.str.23, i64 noundef 15) #8
  %37 = tail call i64 @rb_hash_aset(i64 noundef %24, i64 noundef %36, i64 noundef 45) #8
  %38 = tail call i64 @rb_str_new_static(ptr noundef nonnull @.str.24, i64 noundef 12) #8
  %39 = tail call i64 @rb_hash_aset(i64 noundef %24, i64 noundef %38, i64 noundef 45) #8
  %40 = load i64, ptr @cX509Name, align 8, !tbaa !6
  tail call void @rb_define_const(i64 noundef %40, ptr noundef nonnull @.str.25, i64 noundef %24) #8
  %41 = load i64, ptr @cX509Name, align 8, !tbaa !6
  tail call void @rb_define_const(i64 noundef %41, ptr noundef nonnull @.str.26, i64 noundef 1) #8
  %42 = load i64, ptr @cX509Name, align 8, !tbaa !6
  tail call void @rb_define_const(i64 noundef %42, ptr noundef nonnull @.str.27, i64 noundef 35784239) #8
  %43 = load i64, ptr @cX509Name, align 8, !tbaa !6
  tail call void @rb_define_const(i64 noundef %43, ptr noundef nonnull @.str.28, i64 noundef 17040959) #8
  %44 = load i64, ptr @cX509Name, align 8, !tbaa !6
  tail call void @rb_define_const(i64 noundef %44, ptr noundef nonnull @.str.29, i64 noundef 88604685) #8
  ret void
}